target datalayout = "e-m:e-p270:32:32-p271:32:32-p272:64:64-i64:64-i128:128-f80:128-n8:16:32:64-S128"
target triple = "x86_64-pc-linux-gnu"

%struct.nstime_t = type { i64, i32 }
%struct._packet_info = type { ptr, ptr, i32, i32, %struct.nstime_t, %struct.nstime_t, %struct.nstime_t, i8, ptr, ptr, ptr, ptr, %struct._address, %struct._address, %struct._address, %struct._address, %struct._address, %struct._address, i32, ptr, i8, [3 x i8], %struct.anon, i32, i32, i32, i32, ptr, i8, ptr, ptr, i16, i16, i32, i32, i16, i32, i32, ptr, ptr, ptr, i8, i8, i16, i16, i16, i32, i16, i16, ptr, ptr, ptr, ptr, ptr, i32, i32 }
%struct._address = type { i32, i32, ptr, ptr }
%struct.anon = type { i8, [3 x i8] }

@hf_gbcs_tunnel_command = internal global i32 0, align 4
@hf_gbcs_tunnel_remaining = internal global i32 0, align 4
@ett_gbcs_tunnel = internal global i32 0, align 4
@.str.57 = private unnamed_addr constant [12 x i8] c"GBCS Tunnel\00", align 1
@proto_gbcs_tunnel = internal global i32 0, align 4
@gbcs_message_handle = internal global ptr null, align 8
@.str.567 = private unnamed_addr constant [16 x i8] c"Unknown Command\00", align 1

; Function Attrs: null_pointer_is_valid sspstrong uwtable
define internal i32 @dissect_gbcs_tunnel(ptr noundef %0, ptr noundef %1, ptr noundef %2, ptr noundef %3) #0 {
  %5 = alloca ptr, align 8
  %6 = alloca ptr, align 8
  %7 = alloca ptr, align 8
  %8 = alloca ptr, align 8
  %9 = alloca i32, align 4
  %10 = alloca i8, align 1
  %11 = alloca ptr, align 8
  %12 = alloca ptr, align 8
  %13 = alloca ptr, align 8
  store ptr %0, ptr %5, align 8
  store ptr %1, ptr %6, align 8
  store ptr %2, ptr %7, align 8
  store ptr %3, ptr %8, align 8
  call void @llvm.lifetime.start.p0(i64 4, ptr %9) #5
  store i32 0, ptr %9, align 4
  call void @llvm.lifetime.start.p0(i64 1, ptr %10) #5
  %14 = load ptr, ptr %5, align 8
  %15 = load i32, ptr %9, align 4
  %16 = call zeroext i8 @tvb_get_uint8(ptr noundef %14, i32 noundef %15)
  store i8 %16, ptr %10, align 1
  %17 = load i8, ptr %10, align 1
  %18 = zext i8 %17 to i32
  switch i32 %18, label %56 [
    i32 1, label %19
    i32 2, label %19
    i32 3, label %19
  ]

19:                                               ; preds = %4, %4, %4
  call void @llvm.lifetime.start.p0(i64 8, ptr %11) #5
  call void @llvm.lifetime.start.p0(i64 8, ptr %12) #5
  %20 = load ptr, ptr %6, align 8
  %21 = getelementptr inbounds nuw %struct._packet_info, ptr %20, i32 0, i32 1
  %22 = load ptr, ptr %21, align 8
  call void @col_set_str(ptr noundef %22, i32 noundef 35, ptr noundef @.str.57)
  %23 = load ptr, ptr %7, align 8
  %24 = load i32, ptr @proto_gbcs_tunnel, align 4
  %25 = load ptr, ptr %5, align 8
  %26 = load i32, ptr %9, align 4
  %27 = call ptr @proto_tree_add_item(ptr noundef %23, i32 noundef %24, ptr noundef %25, i32 noundef %26, i32 noundef -1, i32 noundef 0)
  store ptr %27, ptr %11, align 8
  %28 = load ptr, ptr %11, align 8
  %29 = load i32, ptr @ett_gbcs_tunnel, align 4
  %30 = call ptr @proto_item_add_subtree(ptr noundef %28, i32 noundef %29)
  store ptr %30, ptr %12, align 8
  %31 = load ptr, ptr %6, align 8
  %32 = getelementptr inbounds nuw %struct._packet_info, ptr %31, i32 0, i32 1
  %33 = load ptr, ptr %32, align 8
  %34 = load i8, ptr %10, align 1
  %35 = zext i8 %34 to i32
  %36 = call ptr @val_to_str_const(i32 noundef %35, ptr noundef @gbcs_tunnel_command_names, ptr noundef @.str.567)
  call void @col_set_str(ptr noundef %33, i32 noundef 25, ptr noundef %36)
  %37 = load ptr, ptr %12, align 8
  %38 = load i32, ptr @hf_gbcs_tunnel_command, align 4
  %39 = load ptr, ptr %5, align 8
  %40 = load i32, ptr %9, align 4
  %41 = call ptr @proto_tree_add_item(ptr noundef %37, i32 noundef %38, ptr noundef %39, i32 noundef %40, i32 noundef 1, i32 noundef 0)
  %42 = load i32, ptr %9, align 4
  %43 = add i32 %42, 1
  store i32 %43, ptr %9, align 4
  %44 = load i8, ptr %10, align 1
  %45 = zext i8 %44 to i32
  %46 = icmp eq i32 %45, 2
  br i1 %46, label %47, label %55

47:                                               ; preds = %19
  %48 = load ptr, ptr %12, align 8
  %49 = load i32, ptr @hf_gbcs_tunnel_remaining, align 4
  %50 = load ptr, ptr %5, align 8
  %51 = load i32, ptr %9, align 4
  %52 = call ptr @proto_tree_add_item(ptr noundef %48, i32 noundef %49, ptr noundef %50, i32 noundef %51, i32 noundef 1, i32 noundef 0)
  %53 = load i32, ptr %9, align 4
  %54 = add i32 %53, 1
  store i32 %54, ptr %9, align 4
  br label %55

55:                                               ; preds = %47, %19
  call void @llvm.lifetime.end.p0(i64 8, ptr %12) #5
  call void @llvm.lifetime.end.p0(i64 8, ptr %11) #5
  br label %60

56:                                               ; preds = %4
  %57 = load ptr, ptr %6, align 8
  %58 = getelementptr inbounds nuw %struct._packet_info, ptr %57, i32 0, i32 1
  %59 = load ptr, ptr %58, align 8
  call void @col_clear(ptr noundef %59, i32 noundef 25)
  br label %60

60:                                               ; preds = %56, %55
  %61 = load i8, ptr %10, align 1
  %62 = zext i8 %61 to i32
  %63 = icmp ne i32 %62, 1
  br i1 %63, label %64, label %87

64:                                               ; preds = %60
  %65 = load ptr, ptr %5, align 8
  %66 = load i32, ptr %9, align 4
  %67 = call i32 @tvb_reported_length_remaining(ptr noundef %65, i32 noundef %66)
  %68 = icmp sgt i32 %67, 0
  br i1 %68, label %69, label %87

69:                                               ; preds = %64
  call void @llvm.lifetime.start.p0(i64 8, ptr %13) #5
  %70 = load ptr, ptr %5, align 8
  %71 = load i32, ptr %9, align 4
  %72 = call ptr @tvb_new_subset_remaining(ptr noundef %70, i32 noundef %71)
  store ptr %72, ptr %13, align 8
  %73 = load ptr, ptr @gbcs_message_handle, align 8
  %74 = icmp ne ptr %73, null
  br i1 %74, label %75, label %81

75:                                               ; preds = %69
  %76 = load ptr, ptr @gbcs_message_handle, align 8
  %77 = load ptr, ptr %13, align 8
  %78 = load ptr, ptr %6, align 8
  %79 = load ptr, ptr %7, align 8
  %80 = call i32 @call_dissector_with_data(ptr noundef %76, ptr noundef %77, ptr noundef %78, ptr noundef %79, ptr noundef null)
  br label %86

81:                                               ; preds = %69
  %82 = load ptr, ptr %13, align 8
  %83 = load ptr, ptr %6, align 8
  %84 = load ptr, ptr %7, align 8
  %85 = call i32 @call_data_dissector(ptr noundef %82, ptr noundef %83, ptr noundef %84)
  br label %86

86:                                               ; preds = %81, %75
  call void @llvm.lifetime.end.p0(i64 8, ptr %13) #5
  br label %87

87:                                               ; preds = %86, %64, %60
  %88 = load ptr, ptr %5, align 8
  %89 = call i32 @tvb_captured_length(ptr noundef %88)
  call void @llvm.lifetime.end.p0(i64 1, ptr %10) #5
  call void @llvm.lifetime.end.p0(i64 4, ptr %9) #5
  ret i32 %89
}