; Function Attrs: null_pointer_is_valid sspstrong uwtable
define internal i32 @dissect_gbcs_tunnel(ptr noundef %0, ptr noundef %1, ptr noundef %2, ptr readnone captures(none) %3) #0 {
  %5 = tail call zeroext i8 @tvb_get_uint8(ptr noundef %0, i32 noundef 0)
  %.off = add i8 %5, -1
  %switch = icmp ult i8 %.off, 3
  br i1 %switch, label %6, label %21

6:                                                ; preds = %4
  %7 = zext nneg i8 %5 to i32
  %8 = getelementptr inbounds nuw i8, ptr %1, i64 8
  %9 = load ptr, ptr %8, align 8
  tail call void @col_set_str(ptr noundef %9, i32 noundef 35, ptr noundef nonnull @.str.57)
  %10 = load i32, ptr @proto_gbcs_tunnel, align 4
  %11 = tail call ptr @proto_tree_add_item(ptr noundef %2, i32 noundef %10, ptr noundef %0, i32 noundef 0, i32 noundef -1, i32 noundef 0)
  %12 = load i32, ptr @ett_gbcs_tunnel, align 4
  %13 = tail call ptr @proto_item_add_subtree(ptr noundef %11, i32 noundef %12)
  %14 = load ptr, ptr %8, align 8
  %15 = tail call ptr @val_to_str_const(i32 noundef %7, ptr noundef nonnull @gbcs_tunnel_command_names, ptr noundef nonnull @.str.567)
  tail call void @col_set_str(ptr noundef %14, i32 noundef 25, ptr noundef %15)
  %16 = load i32, ptr @hf_gbcs_tunnel_command, align 4
  %17 = tail call ptr @proto_tree_add_item(ptr noundef %13, i32 noundef %16, ptr noundef %0, i32 noundef 0, i32 noundef 1, i32 noundef 0)
  switch i8 %5, label %.thread [
    i8 2, label %18
    i8 1, label %33
  ]

18:                                               ; preds = %6
  %19 = load i32, ptr @hf_gbcs_tunnel_remaining, align 4
  %20 = tail call ptr @proto_tree_add_item(ptr noundef %13, i32 noundef %19, ptr noundef %0, i32 noundef 1, i32 noundef 1, i32 noundef 0)
  br label %.thread

21:                                               ; preds = %4
  %22 = getelementptr inbounds nuw i8, ptr %1, i64 8
  %23 = load ptr, ptr %22, align 8
  tail call void @col_clear(ptr noundef %23, i32 noundef 25)
  br label %.thread

.thread:                                          ; preds = %6, %21, %18
  %.135 = phi i32 [ 2, %18 ], [ 0, %21 ], [ 1, %6 ]
  %24 = tail call i32 @tvb_reported_length_remaining(ptr noundef %0, i32 noundef %.135)
  %25 = icmp sgt i32 %24, 0
  br i1 %25, label %26, label %33

26:                                               ; preds = %.thread
  %27 = tail call ptr @tvb_new_subset_remaining(ptr noundef %0, i32 noundef %.135)
  %28 = load ptr, ptr @gbcs_message_handle, align 8
  %.not32 = icmp eq ptr %28, null
  br i1 %.not32, label %31, label %29

29:                                               ; preds = %26
  %30 = tail call i32 @call_dissector_with_data(ptr noundef nonnull %28, ptr noundef %27, ptr noundef %1, ptr noundef %2, ptr noundef null)
  br label %33

31:                                               ; preds = %26
  %32 = tail call i32 @call_data_dissector(ptr noundef %27, ptr noundef %1, ptr noundef %2)
  br label %33

33:                                               ; preds = %6, %29, %31, %.thread
  %34 = tail call i32 @tvb_captured_length(ptr noundef %0)
  ret i32 %34
}